target datalayout = "e-m:e-p270:32:32-p271:32:32-p272:64:64-i64:64-i128:128-f80:128-n8:16:32:64-S128"
target triple = "x86_64-pc-linux-gnu"

%struct._GList = type { ptr, ptr, ptr }
%struct.dt_tag_t = type { i32, ptr, ptr, ptr, i32, i32, i32 }

@.str.31 = private unnamed_addr constant [2 x i8] c"|\00", align 1
@.str.32 = private unnamed_addr constant [19 x i8] c"omit_tag_hierarchy\00", align 1

; Function Attrs: nounwind uwtable
define void @dt_tag_free_result(ptr noundef %0) #0 {
  %2 = alloca ptr, align 8
  store ptr %0, ptr %2, align 8, !tbaa !66
  %3 = load ptr, ptr %2, align 8, !tbaa !66
  %4 = icmp ne ptr %3, null
  br i1 %4, label %5, label %12

5:                                                ; preds = %1
  %6 = load ptr, ptr %2, align 8, !tbaa !66
  %7 = load ptr, ptr %6, align 8, !tbaa !59
  %8 = icmp ne ptr %7, null
  br i1 %8, label %9, label %12

9:                                                ; preds = %5
  %10 = load ptr, ptr %2, align 8, !tbaa !66
  %11 = load ptr, ptr %10, align 8, !tbaa !59
  call void @g_list_free_full(ptr noundef %11, ptr noundef @_free_result_item)
  br label %12

12:                                               ; preds = %9, %5, %1
  ret void
}

; Function Attrs: nounwind uwtable
define ptr @dt_tag_get_list(i32 noundef %0) #0 {
  %2 = alloca ptr, align 8
  %3 = alloca i32, align 4
  %4 = alloca ptr, align 8
  %5 = alloca ptr, align 8
  %6 = alloca i32, align 4
  %7 = alloca i32, align 4
  %8 = alloca i32, align 4
  %9 = alloca ptr, align 8
  %10 = alloca ptr, align 8
  %11 = alloca ptr, align 8
  %12 = alloca ptr, align 8
  %13 = alloca i64, align 8
  store i32 %0, ptr %3, align 4, !tbaa !52
  call void @llvm.lifetime.start.p0(i64 8, ptr %4) #8
  store ptr null, ptr %4, align 8, !tbaa !59
  call void @llvm.lifetime.start.p0(i64 8, ptr %5) #8
  store ptr null, ptr %5, align 8, !tbaa !59
  call void @llvm.lifetime.start.p0(i64 4, ptr %6) #8
  %14 = call i32 @dt_conf_get_bool(ptr noundef @.str.32)
  store i32 %14, ptr %6, align 4, !tbaa !52
  call void @llvm.lifetime.start.p0(i64 4, ptr %7) #8
  %15 = load i32, ptr %3, align 4, !tbaa !52
  %16 = call i32 @dt_tag_get_attached(i32 noundef %15, ptr noundef %4, i32 noundef 0)
  store i32 %16, ptr %7, align 4, !tbaa !52
  %17 = load i32, ptr %7, align 4, !tbaa !52
  %18 = icmp ult i32 %17, 1
  br i1 %18, label %19, label %20

19:                                               ; preds = %1
  store ptr null, ptr %2, align 8
  store i32 1, ptr %8, align 4
  br label %100

20:                                               ; preds = %1
  br label %21

21:                                               ; preds = %95, %20
  %22 = load ptr, ptr %4, align 8, !tbaa !59
  %23 = icmp ne ptr %22, null
  br i1 %23, label %24, label %97

24:                                               ; preds = %21
  call void @llvm.lifetime.start.p0(i64 8, ptr %9) #8
  %25 = load ptr, ptr %4, align 8, !tbaa !59
  %26 = getelementptr inbounds nuw %struct._GList, ptr %25, i32 0, i32 0
  %27 = load ptr, ptr %26, align 8, !tbaa !60
  store ptr %27, ptr %9, align 8, !tbaa !78
  call void @llvm.lifetime.start.p0(i64 8, ptr %10) #8
  %28 = load ptr, ptr %9, align 8, !tbaa !78
  %29 = getelementptr inbounds nuw %struct.dt_tag_t, ptr %28, i32 0, i32 1
  %30 = load ptr, ptr %29, align 8, !tbaa !80
  store ptr %30, ptr %10, align 8, !tbaa !6
  call void @llvm.lifetime.start.p0(i64 8, ptr %11) #8
  %31 = load ptr, ptr %10, align 8, !tbaa !6
  %32 = call ptr @g_strsplit(ptr noundef %31, ptr noundef @.str.31, i32 noundef -1)
  store ptr %32, ptr %11, align 8, !tbaa !75
  %33 = load ptr, ptr %11, align 8, !tbaa !75
  %34 = icmp ne ptr %33, null
  br i1 %34, label %35, label %86

35:                                               ; preds = %24
  %36 = load i32, ptr %6, align 4, !tbaa !52
  %37 = icmp ne i32 %36, 0
  br i1 %37, label %38, label %66

38:                                               ; preds = %35
  call void @llvm.lifetime.start.p0(i64 8, ptr %12) #8
  %39 = load ptr, ptr %11, align 8, !tbaa !75
  store ptr %39, ptr %12, align 8, !tbaa !75
  br label %40

40:                                               ; preds = %52, %38
  %41 = load ptr, ptr %12, align 8, !tbaa !75
  %42 = load ptr, ptr %41, align 8, !tbaa !6
  %43 = icmp ne ptr %42, null
  br i1 %43, label %44, label %49

44:                                               ; preds = %40
  %45 = load ptr, ptr %12, align 8, !tbaa !75
  %46 = getelementptr inbounds ptr, ptr %45, i64 1
  %47 = load ptr, ptr %46, align 8, !tbaa !6
  %48 = icmp ne ptr %47, null
  br label %49

49:                                               ; preds = %44, %40
  %50 = phi i1 [ false, %40 ], [ %48, %44 ]
  br i1 %50, label %51, label %55

51:                                               ; preds = %49
  br label %52

52:                                               ; preds = %51
  %53 = load ptr, ptr %12, align 8, !tbaa !75
  %54 = getelementptr inbounds nuw ptr, ptr %53, i32 1
  store ptr %54, ptr %12, align 8, !tbaa !75
  br label %40

55:                                               ; preds = %49
  %56 = load ptr, ptr %12, align 8, !tbaa !75
  %57 = load ptr, ptr %56, align 8, !tbaa !6
  %58 = icmp ne ptr %57, null
  br i1 %58, label %59, label %65

59:                                               ; preds = %55
  %60 = load ptr, ptr %5, align 8, !tbaa !59
  %61 = load ptr, ptr %12, align 8, !tbaa !75
  %62 = load ptr, ptr %61, align 8, !tbaa !6
  %63 = call noalias ptr @g_strdup(ptr noundef %62)
  %64 = call ptr @g_list_prepend(ptr noundef %60, ptr noundef %63)
  store ptr %64, ptr %5, align 8, !tbaa !59
  br label %65

65:                                               ; preds = %59, %55
  call void @llvm.lifetime.end.p0(i64 8, ptr %12) #8
  br label %84

66:                                               ; preds = %35
  call void @llvm.lifetime.start.p0(i64 8, ptr %13) #8
  store i64 0, ptr %13, align 8, !tbaa !86
  br label %67

67:                                               ; preds = %73, %66
  %68 = load ptr, ptr %11, align 8, !tbaa !75
  %69 = load i64, ptr %13, align 8, !tbaa !86
  %70 = getelementptr inbounds nuw ptr, ptr %68, i64 %69
  %71 = load ptr, ptr %70, align 8, !tbaa !6
  %72 = icmp ne ptr %71, null
  br i1 %72, label %73, label %83

73:                                               ; preds = %67
  %74 = load ptr, ptr %5, align 8, !tbaa !59
  %75 = load ptr, ptr %11, align 8, !tbaa !75
  %76 = load i64, ptr %13, align 8, !tbaa !86
  %77 = getelementptr inbounds nuw ptr, ptr %75, i64 %76
  %78 = load ptr, ptr %77, align 8, !tbaa !6
  %79 = call noalias ptr @g_strdup(ptr noundef %78)
  %80 = call ptr @g_list_prepend(ptr noundef %74, ptr noundef %79)
  store ptr %80, ptr %5, align 8, !tbaa !59
  %81 = load i64, ptr %13, align 8, !tbaa !86
  %82 = add i64 %81, 1
  store i64 %82, ptr %13, align 8, !tbaa !86
  br label %67

83:                                               ; preds = %67
  call void @llvm.lifetime.end.p0(i64 8, ptr %13) #8
  br label %84

84:                                               ; preds = %83, %65
  %85 = load ptr, ptr %11, align 8, !tbaa !75
  call void @g_strfreev(ptr noundef %85)
  br label %86

86:                                               ; preds = %84, %24
  call void @llvm.lifetime.end.p0(i64 8, ptr %11) #8
  call void @llvm.lifetime.end.p0(i64 8, ptr %10) #8
  call void @llvm.lifetime.end.p0(i64 8, ptr %9) #8
  br label %87

87:                                               ; preds = %86
  %88 = load ptr, ptr %4, align 8, !tbaa !59
  %89 = icmp ne ptr %88, null
  br i1 %89, label %90, label %94

90:                                               ; preds = %87
  %91 = load ptr, ptr %4, align 8, !tbaa !59
  %92 = getelementptr inbounds nuw %struct._GList, ptr %91, i32 0, i32 1
  %93 = load ptr, ptr %92, align 8, !tbaa !64
  br label %95

94:                                               ; preds = %87
  br label %95

95:                                               ; preds = %94, %90
  %96 = phi ptr [ %93, %90 ], [ null, %94 ]
  store ptr %96, ptr %4, align 8, !tbaa !59
  br label %21

97:                                               ; preds = %21
  call void @dt_tag_free_result(ptr noundef %4)
  %98 = load ptr, ptr %5, align 8, !tbaa !59
  %99 = call ptr @dt_util_glist_uniq(ptr noundef %98)
  store ptr %99, ptr %2, align 8
  store i32 1, ptr %8, align 4
  br label %100

100:                                              ; preds = %97, %19
  call void @llvm.lifetime.end.p0(i64 4, ptr %7) #8
  call void @llvm.lifetime.end.p0(i64 4, ptr %6) #8
  call void @llvm.lifetime.end.p0(i64 8, ptr %5) #8
  call void @llvm.lifetime.end.p0(i64 8, ptr %4) #8
  %101 = load ptr, ptr %2, align 8
  ret ptr %101
}