; Function Attrs: nounwind uwtable
define ptr @dt_tag_get_list(i32 noundef %0) local_unnamed_addr #0 {
  %2 = alloca ptr, align 8
  call void @llvm.lifetime.start.p0(i64 8, ptr nonnull %2) #11
  store ptr null, ptr %2, align 8, !tbaa !63
  %3 = tail call i32 @dt_conf_get_bool(ptr noundef nonnull @.str.32) #11
  %4 = call i32 @dt_tag_get_attached(i32 noundef %0, ptr noundef nonnull %2, i32 noundef 0)
  %5 = icmp eq i32 %4, 0
  br i1 %5, label %37, label %thread-pre-split

thread-pre-split:                                 ; preds = %1
  %.pr = load ptr, ptr %2, align 8, !tbaa !63
  %.not43 = icmp eq ptr %.pr, null
  br i1 %.not43, label %dt_tag_free_result.exit, label %.lr.ph45

.lr.ph45:                                         ; preds = %thread-pre-split
  %.fr = freeze i32 %3
  %.not30 = icmp eq i32 %.fr, 0
  br i1 %.not30, label %.lr.ph45.split.us, label %.lr.ph45.split

.lr.ph45.split.us:                                ; preds = %.lr.ph45, %18
  %.02344.us = phi ptr [ %.1.us, %18 ], [ null, %.lr.ph45 ]
  %6 = phi ptr [ %20, %18 ], [ %.pr, %.lr.ph45 ]
  %7 = load ptr, ptr %6, align 8, !tbaa !58
  %8 = getelementptr inbounds nuw i8, ptr %7, i64 8
  %9 = load ptr, ptr %8, align 8, !tbaa !70
  %10 = tail call ptr @g_strsplit(ptr noundef %9, ptr noundef nonnull @.str.31, i32 noundef -1) #11
  %.not29.us = icmp eq ptr %10, null
  br i1 %.not29.us, label %18, label %.preheader.us

.preheader.us:                                    ; preds = %.lr.ph45.split.us
  %11 = load ptr, ptr %10, align 8, !tbaa !57
  %.not3140.us = icmp eq ptr %11, null
  br i1 %.not3140.us, label %.critedge.thread.loopexit.us, label %.lr.ph.us

.lr.ph.us:                                        ; preds = %.preheader.us, %.lr.ph.us
  %12 = phi ptr [ %17, %.lr.ph.us ], [ %11, %.preheader.us ]
  %.042.us = phi i64 [ %15, %.lr.ph.us ], [ 0, %.preheader.us ]
  %.441.us = phi ptr [ %14, %.lr.ph.us ], [ %.02344.us, %.preheader.us ]
  %13 = tail call noalias ptr @g_strdup(ptr noundef nonnull %12) #11
  %14 = tail call ptr @g_list_prepend(ptr noundef %.441.us, ptr noundef %13) #11
  %15 = add i64 %.042.us, 1
  %16 = getelementptr inbounds nuw ptr, ptr %10, i64 %15
  %17 = load ptr, ptr %16, align 8, !tbaa !57
  %.not31.us = icmp eq ptr %17, null
  br i1 %.not31.us, label %.critedge.thread.loopexit.us, label %.lr.ph.us

18:                                               ; preds = %.critedge.thread.loopexit.us, %.lr.ph45.split.us
  %.1.us = phi ptr [ %.4.lcssa.us, %.critedge.thread.loopexit.us ], [ %.02344.us, %.lr.ph45.split.us ]
  %19 = getelementptr inbounds nuw i8, ptr %6, i64 8
  %20 = load ptr, ptr %19, align 8, !tbaa !62
  %.not.us = icmp eq ptr %20, null
  br i1 %.not.us, label %dt_tag_free_result.exit, label %.lr.ph45.split.us

.critedge.thread.loopexit.us:                     ; preds = %.lr.ph.us, %.preheader.us
  %.4.lcssa.us = phi ptr [ %.02344.us, %.preheader.us ], [ %14, %.lr.ph.us ]
  tail call void @g_strfreev(ptr noundef nonnull %10) #11
  br label %18

.lr.ph45.split:                                   ; preds = %.lr.ph45, %33
  %.02344 = phi ptr [ %.1, %33 ], [ null, %.lr.ph45 ]
  %21 = phi ptr [ %35, %33 ], [ %.pr, %.lr.ph45 ]
  %22 = load ptr, ptr %21, align 8, !tbaa !58
  %23 = getelementptr inbounds nuw i8, ptr %22, i64 8
  %24 = load ptr, ptr %23, align 8, !tbaa !70
  %25 = tail call ptr @g_strsplit(ptr noundef %24, ptr noundef nonnull @.str.31, i32 noundef -1) #11
  %.not29 = icmp eq ptr %25, null
  br i1 %.not29, label %33, label %thread-pre-split36

thread-pre-split36:                               ; preds = %.lr.ph45.split
  %.pr37 = load ptr, ptr %25, align 8, !tbaa !57
  br label %26

26:                                               ; preds = %thread-pre-split36, %28
  %27 = phi ptr [ %.pr37, %thread-pre-split36 ], [ %30, %28 ]
  %.021 = phi ptr [ %25, %thread-pre-split36 ], [ %29, %28 ]
  %.not32 = icmp eq ptr %27, null
  br i1 %.not32, label %.critedge.thread, label %28

28:                                               ; preds = %26
  %29 = getelementptr inbounds nuw i8, ptr %.021, i64 8
  %30 = load ptr, ptr %29, align 8, !tbaa !57
  %.not33 = icmp eq ptr %30, null
  br i1 %.not33, label %.critedge, label %26

.critedge:                                        ; preds = %28
  %31 = tail call noalias ptr @g_strdup(ptr noundef nonnull %27) #11
  %32 = tail call ptr @g_list_prepend(ptr noundef %.02344, ptr noundef %31) #11
  br label %.critedge.thread

.critedge.thread:                                 ; preds = %26, %.critedge
  %.3 = phi ptr [ %32, %.critedge ], [ %.02344, %26 ]
  tail call void @g_strfreev(ptr noundef nonnull %25) #11
  br label %33

33:                                               ; preds = %.critedge.thread, %.lr.ph45.split
  %.1 = phi ptr [ %.3, %.critedge.thread ], [ %.02344, %.lr.ph45.split ]
  %34 = getelementptr inbounds nuw i8, ptr %21, i64 8
  %35 = load ptr, ptr %34, align 8, !tbaa !62
  %.not = icmp eq ptr %35, null
  br i1 %.not, label %dt_tag_free_result.exit, label %.lr.ph45.split

dt_tag_free_result.exit:                          ; preds = %33, %18, %thread-pre-split
  %.023.lcssa = phi ptr [ null, %thread-pre-split ], [ %.1.us, %18 ], [ %.1, %33 ]
  %36 = tail call ptr @dt_util_glist_uniq(ptr noundef %.023.lcssa) #11
  br label %37

37:                                               ; preds = %1, %dt_tag_free_result.exit
  %.022 = phi ptr [ %36, %dt_tag_free_result.exit ], [ null, %1 ]
  call void @llvm.lifetime.end.p0(i64 8, ptr nonnull %2) #11
  ret ptr %.022
}